target datalayout = "e-m:e-p270:32:32-p271:32:32-p272:64:64-i64:64-i128:128-f80:128-n8:16:32:64-S128"
target triple = "x86_64-pc-linux-gnu"

%struct.Map_MatchStruct_t_ = type { ptr, i32, i32, ptr, %struct.Map_TimeStruct_t_, float }
%struct.Map_TimeStruct_t_ = type { float, float, float }

; Function Attrs: nounwind uwtable
define void @Map_MatchClean(ptr noundef %0) #0 {
  %2 = alloca ptr, align 8
  store ptr %0, ptr %2, align 8, !tbaa !3
  %3 = load ptr, ptr %2, align 8, !tbaa !3
  call void @llvm.memset.p0.i64(ptr align 8 %3, i8 0, i64 40, i1 false)
  %4 = load ptr, ptr %2, align 8, !tbaa !3
  %5 = getelementptr inbounds nuw %struct.Map_MatchStruct_t_, ptr %4, i32 0, i32 5
  store float 0x47B9999980000000, ptr %5, align 4, !tbaa !8
  %6 = load ptr, ptr %2, align 8, !tbaa !3
  %7 = getelementptr inbounds nuw %struct.Map_MatchStruct_t_, ptr %6, i32 0, i32 4
  %8 = getelementptr inbounds nuw %struct.Map_TimeStruct_t_, ptr %7, i32 0, i32 0
  store float 0x47B9999980000000, ptr %8, align 8, !tbaa !14
  %9 = load ptr, ptr %2, align 8, !tbaa !3
  %10 = getelementptr inbounds nuw %struct.Map_MatchStruct_t_, ptr %9, i32 0, i32 4
  %11 = getelementptr inbounds nuw %struct.Map_TimeStruct_t_, ptr %10, i32 0, i32 1
  store float 0x47B9999980000000, ptr %11, align 4, !tbaa !15
  %12 = load ptr, ptr %2, align 8, !tbaa !3
  %13 = getelementptr inbounds nuw %struct.Map_MatchStruct_t_, ptr %12, i32 0, i32 4
  %14 = getelementptr inbounds nuw %struct.Map_TimeStruct_t_, ptr %13, i32 0, i32 2
  store float 0x47B9999980000000, ptr %14, align 8, !tbaa !16
  ret void
}